target datalayout = "e-m:e-p270:32:32-p271:32:32-p272:64:64-i64:64-i128:128-f80:128-n8:16:32:64-S128"
target triple = "x86_64-pc-linux-gnu"

@hf_mount_statvfs_bsize = internal global i32 0, align 4
@hf_mount_statvfs_frsize = internal global i32 0, align 4
@hf_mount_statvfs_blocks = internal global i32 0, align 4
@hf_mount_statvfs_bfree = internal global i32 0, align 4
@hf_mount_statvfs_bavail = internal global i32 0, align 4
@hf_mount_statvfs_files = internal global i32 0, align 4
@hf_mount_statvfs_ffree = internal global i32 0, align 4
@hf_mount_statvfs_favail = internal global i32 0, align 4
@hf_mount_statvfs_fsid = internal global i32 0, align 4
@hf_mount_statvfs_basetype = internal global i32 0, align 4
@hf_mount_statvfs_flag = internal global i32 0, align 4
@hf_mount_statvfs_namemax = internal global i32 0, align 4
@hf_mount_statvfs_fstr = internal global i32 0, align 4
@ett_mount_statvfs_flag = internal global i32 0, align 4
@dissect_mount_statvfs_reply.flags = internal constant [7 x ptr] [ptr @hf_mount_statvfs_flag_rdonly, ptr @hf_mount_statvfs_flag_nosuid, ptr @hf_mount_statvfs_flag_notrunc, ptr @hf_mount_statvfs_flag_nodev, ptr @hf_mount_statvfs_flag_grpid, ptr @hf_mount_statvfs_flag_local, ptr null], align 16

; Function Attrs: null_pointer_is_valid sspstrong uwtable
define internal i32 @dissect_mount_statvfs_reply(ptr noundef %0, ptr noundef %1, ptr noundef %2, ptr noundef %3) #0 {
  %5 = alloca ptr, align 8
  %6 = alloca ptr, align 8
  %7 = alloca ptr, align 8
  %8 = alloca ptr, align 8
  %9 = alloca i32, align 4
  store ptr %0, ptr %5, align 8
  store ptr %1, ptr %6, align 8
  store ptr %2, ptr %7, align 8
  store ptr %3, ptr %8, align 8
  call void @llvm.lifetime.start.p0(i64 4, ptr %9) #5
  store i32 0, ptr %9, align 4
  %10 = load ptr, ptr %5, align 8
  %11 = load ptr, ptr %7, align 8
  %12 = load i32, ptr @hf_mount_statvfs_bsize, align 4
  %13 = load i32, ptr %9, align 4
  %14 = call i32 @dissect_rpc_uint32(ptr noundef %10, ptr noundef %11, i32 noundef %12, i32 noundef %13)
  %15 = load i32, ptr %9, align 4
  %16 = add i32 %15, 4
  store i32 %16, ptr %9, align 4
  %17 = load ptr, ptr %5, align 8
  %18 = load ptr, ptr %7, align 8
  %19 = load i32, ptr @hf_mount_statvfs_frsize, align 4
  %20 = load i32, ptr %9, align 4
  %21 = call i32 @dissect_rpc_uint32(ptr noundef %17, ptr noundef %18, i32 noundef %19, i32 noundef %20)
  %22 = load i32, ptr %9, align 4
  %23 = add i32 %22, 4
  store i32 %23, ptr %9, align 4
  %24 = load ptr, ptr %5, align 8
  %25 = load ptr, ptr %7, align 8
  %26 = load i32, ptr @hf_mount_statvfs_blocks, align 4
  %27 = load i32, ptr %9, align 4
  %28 = call i32 @dissect_rpc_uint32(ptr noundef %24, ptr noundef %25, i32 noundef %26, i32 noundef %27)
  %29 = load i32, ptr %9, align 4
  %30 = add i32 %29, 4
  store i32 %30, ptr %9, align 4
  %31 = load ptr, ptr %5, align 8
  %32 = load ptr, ptr %7, align 8
  %33 = load i32, ptr @hf_mount_statvfs_bfree, align 4
  %34 = load i32, ptr %9, align 4
  %35 = call i32 @dissect_rpc_uint32(ptr noundef %31, ptr noundef %32, i32 noundef %33, i32 noundef %34)
  %36 = load i32, ptr %9, align 4
  %37 = add i32 %36, 4
  store i32 %37, ptr %9, align 4
  %38 = load ptr, ptr %5, align 8
  %39 = load ptr, ptr %7, align 8
  %40 = load i32, ptr @hf_mount_statvfs_bavail, align 4
  %41 = load i32, ptr %9, align 4
  %42 = call i32 @dissect_rpc_uint32(ptr noundef %38, ptr noundef %39, i32 noundef %40, i32 noundef %41)
  %43 = load i32, ptr %9, align 4
  %44 = add i32 %43, 4
  store i32 %44, ptr %9, align 4
  %45 = load ptr, ptr %5, align 8
  %46 = load ptr, ptr %7, align 8
  %47 = load i32, ptr @hf_mount_statvfs_files, align 4
  %48 = load i32, ptr %9, align 4
  %49 = call i32 @dissect_rpc_uint32(ptr noundef %45, ptr noundef %46, i32 noundef %47, i32 noundef %48)
  %50 = load i32, ptr %9, align 4
  %51 = add i32 %50, 4
  store i32 %51, ptr %9, align 4
  %52 = load ptr, ptr %5, align 8
  %53 = load ptr, ptr %7, align 8
  %54 = load i32, ptr @hf_mount_statvfs_ffree, align 4
  %55 = load i32, ptr %9, align 4
  %56 = call i32 @dissect_rpc_uint32(ptr noundef %52, ptr noundef %53, i32 noundef %54, i32 noundef %55)
  %57 = load i32, ptr %9, align 4
  %58 = add i32 %57, 4
  store i32 %58, ptr %9, align 4
  %59 = load ptr, ptr %5, align 8
  %60 = load ptr, ptr %7, align 8
  %61 = load i32, ptr @hf_mount_statvfs_favail, align 4
  %62 = load i32, ptr %9, align 4
  %63 = call i32 @dissect_rpc_uint32(ptr noundef %59, ptr noundef %60, i32 noundef %61, i32 noundef %62)
  %64 = load i32, ptr %9, align 4
  %65 = add i32 %64, 4
  store i32 %65, ptr %9, align 4
  %66 = load ptr, ptr %5, align 8
  %67 = load ptr, ptr %7, align 8
  %68 = load i32, ptr @hf_mount_statvfs_basetype, align 4
  %69 = load i32, ptr %9, align 4
  %70 = call i32 @dissect_rpc_bytes(ptr noundef %66, ptr noundef %67, i32 noundef %68, i32 noundef %69, i32 noundef 16, i1 noundef zeroext true, ptr noundef null)
  %71 = load i32, ptr %9, align 4
  %72 = add i32 %71, 16
  store i32 %72, ptr %9, align 4
  %73 = load ptr, ptr %5, align 8
  %74 = load ptr, ptr %7, align 8
  %75 = load i32, ptr @hf_mount_statvfs_fstr, align 4
  %76 = load i32, ptr %9, align 4
  %77 = call i32 @dissect_rpc_bytes(ptr noundef %73, ptr noundef %74, i32 noundef %75, i32 noundef %76, i32 noundef 32, i1 noundef zeroext false, ptr noundef null)
  %78 = load i32, ptr %9, align 4
  %79 = add i32 %78, 32
  store i32 %79, ptr %9, align 4
  %80 = load ptr, ptr %5, align 8
  %81 = load ptr, ptr %7, align 8
  %82 = load i32, ptr @hf_mount_statvfs_fsid, align 4
  %83 = load i32, ptr %9, align 4
  %84 = call i32 @dissect_rpc_uint32(ptr noundef %80, ptr noundef %81, i32 noundef %82, i32 noundef %83)
  %85 = load i32, ptr %9, align 4
  %86 = add i32 %85, 4
  store i32 %86, ptr %9, align 4
  %87 = load ptr, ptr %7, align 8
  %88 = load ptr, ptr %5, align 8
  %89 = load i32, ptr %9, align 4
  %90 = load i32, ptr @hf_mount_statvfs_flag, align 4
  %91 = load i32, ptr @ett_mount_statvfs_flag, align 4
  %92 = call ptr @proto_tree_add_bitmask(ptr noundef %87, ptr noundef %88, i32 noundef %89, i32 noundef %90, i32 noundef %91, ptr noundef @dissect_mount_statvfs_reply.flags, i32 noundef 0)
  %93 = load i32, ptr %9, align 4
  %94 = add i32 %93, 4
  store i32 %94, ptr %9, align 4
  %95 = load ptr, ptr %5, align 8
  %96 = load ptr, ptr %7, align 8
  %97 = load i32, ptr @hf_mount_statvfs_namemax, align 4
  %98 = load i32, ptr %9, align 4
  %99 = call i32 @dissect_rpc_uint32(ptr noundef %95, ptr noundef %96, i32 noundef %97, i32 noundef %98)
  %100 = load i32, ptr %9, align 4
  %101 = add i32 %100, 4
  store i32 %101, ptr %9, align 4
  %102 = load i32, ptr %9, align 4
  call void @llvm.lifetime.end.p0(i64 4, ptr %9) #5
  ret i32 %102
}