; Function Attrs: null_pointer_is_valid sspstrong uwtable
define internal noundef i32 @dissect_mount_statvfs_reply(ptr noundef %0, ptr readnone captures(none) %1, ptr noundef %2, ptr readnone captures(none) %3) #0 {
  %5 = load i32, ptr @hf_mount_statvfs_bsize, align 4
  %6 = tail call i32 @dissect_rpc_uint32(ptr noundef %0, ptr noundef %2, i32 noundef %5, i32 noundef 0)
  %7 = load i32, ptr @hf_mount_statvfs_frsize, align 4
  %8 = tail call i32 @dissect_rpc_uint32(ptr noundef %0, ptr noundef %2, i32 noundef %7, i32 noundef 4)
  %9 = load i32, ptr @hf_mount_statvfs_blocks, align 4
  %10 = tail call i32 @dissect_rpc_uint32(ptr noundef %0, ptr noundef %2, i32 noundef %9, i32 noundef 8)
  %11 = load i32, ptr @hf_mount_statvfs_bfree, align 4
  %12 = tail call i32 @dissect_rpc_uint32(ptr noundef %0, ptr noundef %2, i32 noundef %11, i32 noundef 12)
  %13 = load i32, ptr @hf_mount_statvfs_bavail, align 4
  %14 = tail call i32 @dissect_rpc_uint32(ptr noundef %0, ptr noundef %2, i32 noundef %13, i32 noundef 16)
  %15 = load i32, ptr @hf_mount_statvfs_files, align 4
  %16 = tail call i32 @dissect_rpc_uint32(ptr noundef %0, ptr noundef %2, i32 noundef %15, i32 noundef 20)
  %17 = load i32, ptr @hf_mount_statvfs_ffree, align 4
  %18 = tail call i32 @dissect_rpc_uint32(ptr noundef %0, ptr noundef %2, i32 noundef %17, i32 noundef 24)
  %19 = load i32, ptr @hf_mount_statvfs_favail, align 4
  %20 = tail call i32 @dissect_rpc_uint32(ptr noundef %0, ptr noundef %2, i32 noundef %19, i32 noundef 28)
  %21 = load i32, ptr @hf_mount_statvfs_basetype, align 4
  %22 = tail call i32 @dissect_rpc_bytes(ptr noundef %0, ptr noundef %2, i32 noundef %21, i32 noundef 32, i32 noundef 16, i1 noundef zeroext true, ptr noundef null)
  %23 = load i32, ptr @hf_mount_statvfs_fstr, align 4
  %24 = tail call i32 @dissect_rpc_bytes(ptr noundef %0, ptr noundef %2, i32 noundef %23, i32 noundef 48, i32 noundef 32, i1 noundef zeroext false, ptr noundef null)
  %25 = load i32, ptr @hf_mount_statvfs_fsid, align 4
  %26 = tail call i32 @dissect_rpc_uint32(ptr noundef %0, ptr noundef %2, i32 noundef %25, i32 noundef 80)
  %27 = load i32, ptr @hf_mount_statvfs_flag, align 4
  %28 = load i32, ptr @ett_mount_statvfs_flag, align 4
  %29 = tail call ptr @proto_tree_add_bitmask(ptr noundef %2, ptr noundef %0, i32 noundef 84, i32 noundef %27, i32 noundef %28, ptr noundef nonnull @dissect_mount_statvfs_reply.flags, i32 noundef 0)
  %30 = load i32, ptr @hf_mount_statvfs_namemax, align 4
  %31 = tail call i32 @dissect_rpc_uint32(ptr noundef %0, ptr noundef %2, i32 noundef %30, i32 noundef 88)
  ret i32 92
}